target datalayout = "e-m:e-p270:32:32-p271:32:32-p272:64:64-i64:64-i128:128-f80:128-n8:16:32:64-S128"
target triple = "x86_64-pc-linux-gnu"

%struct._zval_struct = type { %union._zend_value, %union.anon.4, %union.anon.7 }
%union._zend_value = type { i64 }
%union.anon.4 = type { i32 }
%union.anon.7 = type { i32 }

@orig_file_exists = internal global ptr null, align 8

; Function Attrs: nounwind uwtable
define internal void @accel_file_exists(ptr noundef %0, ptr noundef %1) #0 {
  %3 = alloca ptr, align 8
  %4 = alloca ptr, align 8
  store ptr %0, ptr %3, align 8
  store ptr %1, ptr %4, align 8
  %5 = load ptr, ptr %3, align 8
  %6 = load ptr, ptr %4, align 8
  %7 = call i32 @accel_file_in_cache(ptr noundef %5, ptr noundef %6)
  %8 = icmp ne i32 %7, 0
  br i1 %8, label %9, label %16

9:                                                ; preds = %2
  br label %10

10:                                               ; preds = %9
  br label %11

11:                                               ; preds = %10
  %12 = load ptr, ptr %4, align 8
  %13 = getelementptr inbounds %struct._zval_struct, ptr %12, i32 0, i32 1
  store i32 3, ptr %13, align 8
  br label %14

14:                                               ; preds = %11
  br label %20

15:                                               ; No predecessors!
  br label %20

16:                                               ; preds = %2
  %17 = load ptr, ptr @orig_file_exists, align 8
  %18 = load ptr, ptr %3, align 8
  %19 = load ptr, ptr %4, align 8
  call void %17(ptr noundef %18, ptr noundef %19)
  br label %20

20:                                               ; preds = %16, %15, %14
  ret void
}